target datalayout = "e-m:e-p270:32:32-p271:32:32-p272:64:64-i64:64-i128:128-f80:128-n8:16:32:64-S128"
target triple = "x86_64-pc-linux-gnu"

%struct.MtrNode = type { i32, i32, i32, i32, ptr, ptr, ptr, ptr }

@stdout = external global ptr, align 8
@.str = private unnamed_addr constant [66 x i8] c"N=0x%-8lx C=0x%-8lx Y=0x%-8lx E=0x%-8lx P=0x%-8lx F=%x L=%u S=%u\0A\00", align 1

; Function Attrs: nounwind uwtable
define void @Mtr_PrintTree(ptr noundef %0) #0 {
  %2 = alloca ptr, align 8
  store ptr %0, ptr %2, align 8, !tbaa !3
  %3 = load ptr, ptr %2, align 8, !tbaa !3
  %4 = icmp eq ptr %3, null
  br i1 %4, label %5, label %6

5:                                                ; preds = %1
  br label %49

6:                                                ; preds = %1
  %7 = load ptr, ptr @stdout, align 8, !tbaa !22
  %8 = load ptr, ptr %2, align 8, !tbaa !3
  %9 = ptrtoint ptr %8 to i64
  %10 = load ptr, ptr %2, align 8, !tbaa !3
  %11 = getelementptr inbounds nuw %struct.MtrNode, ptr %10, i32 0, i32 5
  %12 = load ptr, ptr %11, align 8, !tbaa !12
  %13 = ptrtoint ptr %12 to i64
  %14 = load ptr, ptr %2, align 8, !tbaa !3
  %15 = getelementptr inbounds nuw %struct.MtrNode, ptr %14, i32 0, i32 7
  %16 = load ptr, ptr %15, align 8, !tbaa !8
  %17 = ptrtoint ptr %16 to i64
  %18 = load ptr, ptr %2, align 8, !tbaa !3
  %19 = getelementptr inbounds nuw %struct.MtrNode, ptr %18, i32 0, i32 6
  %20 = load ptr, ptr %19, align 8, !tbaa !11
  %21 = ptrtoint ptr %20 to i64
  %22 = load ptr, ptr %2, align 8, !tbaa !3
  %23 = getelementptr inbounds nuw %struct.MtrNode, ptr %22, i32 0, i32 4
  %24 = load ptr, ptr %23, align 8, !tbaa !13
  %25 = ptrtoint ptr %24 to i64
  %26 = load ptr, ptr %2, align 8, !tbaa !3
  %27 = getelementptr inbounds nuw %struct.MtrNode, ptr %26, i32 0, i32 0
  %28 = load i32, ptr %27, align 8, !tbaa !14
  %29 = load ptr, ptr %2, align 8, !tbaa !3
  %30 = getelementptr inbounds nuw %struct.MtrNode, ptr %29, i32 0, i32 1
  %31 = load i32, ptr %30, align 4, !tbaa !16
  %32 = load ptr, ptr %2, align 8, !tbaa !3
  %33 = getelementptr inbounds nuw %struct.MtrNode, ptr %32, i32 0, i32 2
  %34 = load i32, ptr %33, align 8, !tbaa !17
  %35 = call i32 (ptr, ptr, ...) @fprintf(ptr noundef %7, ptr noundef @.str, i64 noundef %9, i64 noundef %13, i64 noundef %17, i64 noundef %21, i64 noundef %25, i32 noundef %28, i32 noundef %31, i32 noundef %34) #4
  %36 = load ptr, ptr %2, align 8, !tbaa !3
  %37 = getelementptr inbounds nuw %struct.MtrNode, ptr %36, i32 0, i32 0
  %38 = load i32, ptr %37, align 8, !tbaa !14
  %39 = and i32 %38, 1
  %40 = icmp ne i32 %39, 0
  br i1 %40, label %45, label %41

41:                                               ; preds = %6
  %42 = load ptr, ptr %2, align 8, !tbaa !3
  %43 = getelementptr inbounds nuw %struct.MtrNode, ptr %42, i32 0, i32 5
  %44 = load ptr, ptr %43, align 8, !tbaa !12
  call void @Mtr_PrintTree(ptr noundef %44)
  br label %45

45:                                               ; preds = %41, %6
  %46 = load ptr, ptr %2, align 8, !tbaa !3
  %47 = getelementptr inbounds nuw %struct.MtrNode, ptr %46, i32 0, i32 7
  %48 = load ptr, ptr %47, align 8, !tbaa !8
  call void @Mtr_PrintTree(ptr noundef %48)
  br label %49

49:                                               ; preds = %45, %5
  ret void
}