; Function Attrs: nofree nounwind uwtable
define void @Mtr_PrintTree(ptr noundef %0) local_unnamed_addr #9 {
  %2 = icmp eq ptr %0, null
  br i1 %2, label %tailrecurse._crit_edge, label %.lr.ph

.lr.ph:                                           ; preds = %1, %tailrecurse
  %.tr12 = phi ptr [ %27, %tailrecurse ], [ %0, %1 ]
  %3 = load ptr, ptr @stdout, align 8, !tbaa !20
  %4 = ptrtoint ptr %.tr12 to i64
  %5 = getelementptr inbounds nuw i8, ptr %.tr12, i64 24
  %6 = load ptr, ptr %5, align 8, !tbaa !10
  %7 = ptrtoint ptr %6 to i64
  %8 = getelementptr inbounds nuw i8, ptr %.tr12, i64 40
  %9 = load ptr, ptr %8, align 8, !tbaa !11
  %10 = ptrtoint ptr %9 to i64
  %11 = getelementptr inbounds nuw i8, ptr %.tr12, i64 32
  %12 = load ptr, ptr %11, align 8, !tbaa !15
  %13 = ptrtoint ptr %12 to i64
  %14 = getelementptr inbounds nuw i8, ptr %.tr12, i64 16
  %15 = load ptr, ptr %14, align 8, !tbaa !16
  %16 = ptrtoint ptr %15 to i64
  %17 = load i32, ptr %.tr12, align 8, !tbaa !3
  %18 = getelementptr inbounds nuw i8, ptr %.tr12, i64 4
  %19 = load i32, ptr %18, align 4, !tbaa !12
  %20 = getelementptr inbounds nuw i8, ptr %.tr12, i64 8
  %21 = load i32, ptr %20, align 8, !tbaa !13
  %22 = tail call i32 (ptr, ptr, ...) @fprintf(ptr noundef %3, ptr noundef nonnull @.str, i64 noundef %4, i64 noundef %7, i64 noundef %10, i64 noundef %13, i64 noundef %16, i32 noundef %17, i32 noundef %19, i32 noundef %21) #13
  %23 = load i32, ptr %.tr12, align 8, !tbaa !3
  %24 = and i32 %23, 1
  %.not = icmp eq i32 %24, 0
  br i1 %.not, label %25, label %tailrecurse

25:                                               ; preds = %.lr.ph
  %26 = load ptr, ptr %5, align 8, !tbaa !10
  tail call void @Mtr_PrintTree(ptr noundef %26)
  br label %tailrecurse

tailrecurse:                                      ; preds = %25, %.lr.ph
  %27 = load ptr, ptr %8, align 8, !tbaa !11
  %28 = icmp eq ptr %27, null
  br i1 %28, label %tailrecurse._crit_edge, label %.lr.ph

tailrecurse._crit_edge:                           ; preds = %tailrecurse, %1
  ret void
}